
./test:     file format elf64-x86-64

Contents of section .interp:
 0318 2f6c6962 36342f6c 642d6c69 6e75782d  /lib64/ld-linux-
 0328 7838362d 36342e73 6f2e3200           x86-64.so.2.    
Contents of section .note.gnu.property:
 0338 04000000 10000000 05000000 474e5500  ............GNU.
 0348 028000c0 04000000 01000000 00000000  ................
Contents of section .note.gnu.build-id:
 0358 04000000 14000000 03000000 474e5500  ............GNU.
 0368 cee7d828 e4edf3bb efcb090d 2246221d  ...(........"F".
 0378 3855764b                             8UvK            
Contents of section .note.ABI-tag:
 037c 04000000 10000000 01000000 474e5500  ............GNU.
 038c 00000000 03000000 02000000 00000000  ................
Contents of section .gnu.hash:
 03a0 02000000 05000000 01000000 06000000  ................
 03b0 00008100 00000000 05000000 00000000  ................
 03c0 d165ce6d                             .e.m            
Contents of section .dynsym:
 03c8 00000000 00000000 00000000 00000000  ................
 03d8 00000000 00000000 10000000 12000000  ................
 03e8 00000000 00000000 00000000 00000000  ................
 03f8 43000000 20000000 00000000 00000000  C... ...........
 0408 00000000 00000000 5f000000 20000000  ........_... ...
 0418 00000000 00000000 00000000 00000000  ................
 0428 6e000000 20000000 00000000 00000000  n... ...........
 0438 00000000 00000000 01000000 22000000  ............"...
 0448 00000000 00000000 00000000 00000000  ................
Contents of section .dynstr:
 0458 005f5f63 78615f66 696e616c 697a6500  .__cxa_finalize.
 0468 5f5f6c69 62635f73 74617274 5f6d6169  __libc_start_mai
 0478 6e006c69 62632e73 6f2e3600 474c4942  n.libc.so.6.GLIB
 0488 435f322e 322e3500 474c4942 435f322e  C_2.2.5.GLIBC_2.
 0498 3334005f 49544d5f 64657265 67697374  34._ITM_deregist
 04a8 6572544d 436c6f6e 65546162 6c65005f  erTMCloneTable._
 04b8 5f676d6f 6e5f7374 6172745f 5f005f49  _gmon_start__._I
 04c8 544d5f72 65676973 74657254 4d436c6f  TM_registerTMClo
 04d8 6e655461 626c6500                    neTable.        
Contents of section .gnu.version:
 04e0 00000200 01000100 01000300           ............    
Contents of section .gnu.version_r:
 04f0 01000200 22000000 10000000 00000000  ...."...........
 0500 751a6909 00000300 2c000000 10000000  u.i.....,.......
 0510 b4919606 00000200 38000000 00000000  ........8.......
Contents of section .rela.dyn:
 0520 f03d0000 00000000 08000000 00000000  .=..............
 0530 20110000 00000000 f83d0000 00000000   ........=......
 0540 08000000 00000000 e0100000 00000000  ................
 0550 08400000 00000000 08000000 00000000  .@..............
 0560 08400000 00000000 d83f0000 00000000  .@.......?......
 0570 06000000 01000000 00000000 00000000  ................
 0580 e03f0000 00000000 06000000 02000000  .?..............
 0590 00000000 00000000 e83f0000 00000000  .........?......
 05a0 06000000 03000000 00000000 00000000  ................
 05b0 f03f0000 00000000 06000000 04000000  .?..............
 05c0 00000000 00000000 f83f0000 00000000  .........?......
 05d0 06000000 05000000 00000000 00000000  ................
Contents of section .init:
 1000 f30f1efa 4883ec08 488b05d9 2f000048  ....H...H.../..H
 1010 85c07402 ffd04883 c408c3             ..t...H....     
Contents of section .plt:
 1020 ff35a22f 0000ff25 a42f0000 0f1f4000  .5./...%./....@.
Contents of section .plt.got:
 1030 ff25c22f 00006690                    .%./..f.        
Contents of section .text:
 1040 f30f1efa 31ed4989 d15e4889 e24883e4  ....1.I..^H..H..
 1050 f0505445 31c031c9 488d3dd9 000000ff  .PTE1.1.H.=.....
 1060 15732f00 00f4662e 0f1f8400 00000000  .s/...f.........
 1070 488d3d99 2f000048 8d05922f 00004839  H.=./..H.../..H9
 1080 f8741548 8b05562f 00004885 c07409ff  .t.H..V/..H..t..
 1090 e00f1f80 00000000 c30f1f80 00000000  ................
 10a0 488d3d69 2f000048 8d35622f 00004829  H.=i/..H.5b/..H)
 10b0 fe4889f0 48c1ee3f 48c1f803 4801c648  .H..H..?H...H..H
 10c0 d1fe7414 488b0525 2f000048 85c07408  ..t.H..%/..H..t.
 10d0 ffe0660f 1f440000 c30f1f80 00000000  ..f..D..........
 10e0 f30f1efa 803d252f 00000075 2b554883  .....=%/...u+UH.
 10f0 3d022f00 00004889 e5740c48 8b3d062f  =./...H..t.H.=./
 1100 0000e829 ffffffe8 64ffffff c605fd2e  ...)....d.......
 1110 0000015d c30f1f00 c30f1f80 00000000  ...]............
 1120 f30f1efa e977ffff fff30f1e fa554889  .....w.......UH.
 1130 e5b80300 00005dc3 e8ecffff ff        ......]......   
Contents of section .fini:
 1140 f30f1efa 4883ec08 4883c408 c3        ....H...H....   
Contents of section .rodata:
 2000 01000200                             ....            
Contents of section .eh_frame_hdr:
 2004 011b033b 28000000 04000000 1cf0ffff  ...;(...........
 2014 5c000000 2cf0ffff 84000000 3cf0ffff  \...,.......<...
 2024 44000000 25f1ffff 9c000000           D...%.......    
Contents of section .eh_frame:
 2030 14000000 00000000 017a5200 01781001  .........zR..x..
 2040 1b0c0708 90010000 14000000 1c000000  ................
 2050 f0efffff 26000000 00440710 00000000  ....&....D......
 2060 24000000 34000000 b8efffff 10000000  $...4...........
 2070 000e1046 0e184a0f 0b770880 003f1a3b  ...F..J..w...?.;
 2080 2a332422 00000000 14000000 5c000000  *3$"........\...
 2090 a0efffff 08000000 00000000 00000000  ................
 20a0 1c000000 74000000 81f0ffff 0f000000  ....t...........
 20b0 00450e10 8602430d 06460c07 08000000  .E....C..F......
 20c0 00000000                             ....            
Contents of section .init_array:
 3df0 20110000 00000000                     .......        
Contents of section .fini_array:
 3df8 e0100000 00000000                    ........        
Contents of section .dynamic:
 3e00 01000000 00000000 22000000 00000000  ........".......
 3e10 0c000000 00000000 00100000 00000000  ................
 3e20 0d000000 00000000 40110000 00000000  ........@.......
 3e30 19000000 00000000 f03d0000 00000000  .........=......
 3e40 1b000000 00000000 08000000 00000000  ................
 3e50 1a000000 00000000 f83d0000 00000000  .........=......
 3e60 1c000000 00000000 08000000 00000000  ................
 3e70 f5feff6f 00000000 a0030000 00000000  ...o............
 3e80 05000000 00000000 58040000 00000000  ........X.......
 3e90 06000000 00000000 c8030000 00000000  ................
 3ea0 0a000000 00000000 88000000 00000000  ................
 3eb0 0b000000 00000000 18000000 00000000  ................
 3ec0 15000000 00000000 00000000 00000000  ................
 3ed0 03000000 00000000 c03f0000 00000000  .........?......
 3ee0 07000000 00000000 20050000 00000000  ........ .......
 3ef0 08000000 00000000 c0000000 00000000  ................
 3f00 09000000 00000000 18000000 00000000  ................
 3f10 1e000000 00000000 08000000 00000000  ................
 3f20 fbffff6f 00000000 01000008 00000000  ...o............
 3f30 feffff6f 00000000 f0040000 00000000  ...o............
 3f40 ffffff6f 00000000 01000000 00000000  ...o............
 3f50 f0ffff6f 00000000 e0040000 00000000  ...o............
 3f60 f9ffff6f 00000000 03000000 00000000  ...o............
 3f70 00000000 00000000 00000000 00000000  ................
 3f80 00000000 00000000 00000000 00000000  ................
 3f90 00000000 00000000 00000000 00000000  ................
 3fa0 00000000 00000000 00000000 00000000  ................
 3fb0 00000000 00000000 00000000 00000000  ................
Contents of section .got:
 3fc0 003e0000 00000000 00000000 00000000  .>..............
 3fd0 00000000 00000000 00000000 00000000  ................
 3fe0 00000000 00000000 00000000 00000000  ................
 3ff0 00000000 00000000 00000000 00000000  ................
Contents of section .data:
 4000 00000000 00000000 08400000 00000000  .........@......
Contents of section .comment:
 0000 4743433a 20285562 756e7475 2031312e  GCC: (Ubuntu 11.
 0010 342e302d 31756275 6e747531 7e32322e  4.0-1ubuntu1~22.
 0020 30342920 31312e34 2e3000             04) 11.4.0.     

Disassembly of section .init:

0000000000001000 <_init>:
    1000:	f3 0f 1e fa          	endbr64 
    1004:	48 83 ec 08          	sub    $0x8,%rsp
    1008:	48 8b 05 d9 2f 00 00 	mov    0x2fd9(%rip),%rax        # 3fe8 <__gmon_start__@Base>
    100f:	48 85 c0             	test   %rax,%rax
    1012:	74 02                	je     1016 <_init+0x16>
    1014:	ff d0                	call   *%rax
    1016:	48 83 c4 08          	add    $0x8,%rsp
    101a:	c3                   	ret    

Disassembly of section .plt:

0000000000001020 <.plt>:
    1020:	ff 35 a2 2f 00 00    	push   0x2fa2(%rip)        # 3fc8 <_GLOBAL_OFFSET_TABLE_+0x8>
    1026:	ff 25 a4 2f 00 00    	jmp    *0x2fa4(%rip)        # 3fd0 <_GLOBAL_OFFSET_TABLE_+0x10>
    102c:	0f 1f 40 00          	nopl   0x0(%rax)

Disassembly of section .plt.got:

0000000000001030 <__cxa_finalize@plt>:
    1030:	ff 25 c2 2f 00 00    	jmp    *0x2fc2(%rip)        # 3ff8 <__cxa_finalize@GLIBC_2.2.5>
    1036:	66 90                	xchg   %ax,%ax

Disassembly of section .text:

0000000000001040 <_start>:
    1040:	f3 0f 1e fa          	endbr64 
    1044:	31 ed                	xor    %ebp,%ebp
    1046:	49 89 d1             	mov    %rdx,%r9
    1049:	5e                   	pop    %rsi
    104a:	48 89 e2             	mov    %rsp,%rdx
    104d:	48 83 e4 f0          	and    $0xfffffffffffffff0,%rsp
    1051:	50                   	push   %rax
    1052:	54                   	push   %rsp
    1053:	45 31 c0             	xor    %r8d,%r8d
    1056:	31 c9                	xor    %ecx,%ecx
    1058:	48 8d 3d d9 00 00 00 	lea    0xd9(%rip),%rdi        # 1138 <main>
    105f:	ff 15 73 2f 00 00    	call   *0x2f73(%rip)        # 3fd8 <__libc_start_main@GLIBC_2.34>
    1065:	f4                   	hlt    
    1066:	66 2e 0f 1f 84 00 00 	cs nopw 0x0(%rax,%rax,1)
    106d:	00 00 00 

0000000000001070 <deregister_tm_clones>:
    1070:	48 8d 3d 99 2f 00 00 	lea    0x2f99(%rip),%rdi        # 4010 <__TMC_END__>
    1077:	48 8d 05 92 2f 00 00 	lea    0x2f92(%rip),%rax        # 4010 <__TMC_END__>
    107e:	48 39 f8             	cmp    %rdi,%rax
    1081:	74 15                	je     1098 <deregister_tm_clones+0x28>
    1083:	48 8b 05 56 2f 00 00 	mov    0x2f56(%rip),%rax        # 3fe0 <_ITM_deregisterTMCloneTable@Base>
    108a:	48 85 c0             	test   %rax,%rax
    108d:	74 09                	je     1098 <deregister_tm_clones+0x28>
    108f:	ff e0                	jmp    *%rax
    1091:	0f 1f 80 00 00 00 00 	nopl   0x0(%rax)
    1098:	c3                   	ret    
    1099:	0f 1f 80 00 00 00 00 	nopl   0x0(%rax)

00000000000010a0 <register_tm_clones>:
    10a0:	48 8d 3d 69 2f 00 00 	lea    0x2f69(%rip),%rdi        # 4010 <__TMC_END__>
    10a7:	48 8d 35 62 2f 00 00 	lea    0x2f62(%rip),%rsi        # 4010 <__TMC_END__>
    10ae:	48 29 fe             	sub    %rdi,%rsi
    10b1:	48 89 f0             	mov    %rsi,%rax
    10b4:	48 c1 ee 3f          	shr    $0x3f,%rsi
    10b8:	48 c1 f8 03          	sar    $0x3,%rax
    10bc:	48 01 c6             	add    %rax,%rsi
    10bf:	48 d1 fe             	sar    %rsi
    10c2:	74 14                	je     10d8 <register_tm_clones+0x38>
    10c4:	48 8b 05 25 2f 00 00 	mov    0x2f25(%rip),%rax        # 3ff0 <_ITM_registerTMCloneTable@Base>
    10cb:	48 85 c0             	test   %rax,%rax
    10ce:	74 08                	je     10d8 <register_tm_clones+0x38>
    10d0:	ff e0                	jmp    *%rax
    10d2:	66 0f 1f 44 00 00    	nopw   0x0(%rax,%rax,1)
    10d8:	c3                   	ret    
    10d9:	0f 1f 80 00 00 00 00 	nopl   0x0(%rax)

00000000000010e0 <__do_global_dtors_aux>:
    10e0:	f3 0f 1e fa          	endbr64 
    10e4:	80 3d 25 2f 00 00 00 	cmpb   $0x0,0x2f25(%rip)        # 4010 <__TMC_END__>
    10eb:	75 2b                	jne    1118 <__do_global_dtors_aux+0x38>
    10ed:	55                   	push   %rbp
    10ee:	48 83 3d 02 2f 00 00 	cmpq   $0x0,0x2f02(%rip)        # 3ff8 <__cxa_finalize@GLIBC_2.2.5>
    10f5:	00 
    10f6:	48 89 e5             	mov    %rsp,%rbp
    10f9:	74 0c                	je     1107 <__do_global_dtors_aux+0x27>
    10fb:	48 8b 3d 06 2f 00 00 	mov    0x2f06(%rip),%rdi        # 4008 <__dso_handle>
    1102:	e8 29 ff ff ff       	call   1030 <__cxa_finalize@plt>
    1107:	e8 64 ff ff ff       	call   1070 <deregister_tm_clones>
    110c:	c6 05 fd 2e 00 00 01 	movb   $0x1,0x2efd(%rip)        # 4010 <__TMC_END__>
    1113:	5d                   	pop    %rbp
    1114:	c3                   	ret    
    1115:	0f 1f 00             	nopl   (%rax)
    1118:	c3                   	ret    
    1119:	0f 1f 80 00 00 00 00 	nopl   0x0(%rax)

0000000000001120 <frame_dummy>:
    1120:	f3 0f 1e fa          	endbr64 
    1124:	e9 77 ff ff ff       	jmp    10a0 <register_tm_clones>

0000000000001129 <foo>:
    1129:	f3 0f 1e fa          	endbr64 
    112d:	55                   	push   %rbp
    112e:	48 89 e5             	mov    %rsp,%rbp
    1131:	b8 03 00 00 00       	mov    $0x3,%eax
    1136:	5d                   	pop    %rbp
    1137:	c3                   	ret    

0000000000001138 <main>:
    1138:	e8 ec ff ff ff       	call   1129 <foo>

Disassembly of section .fini:

0000000000001140 <_fini>:
    1140:	f3 0f 1e fa          	endbr64 
    1144:	48 83 ec 08          	sub    $0x8,%rsp
    1148:	48 83 c4 08          	add    $0x8,%rsp
    114c:	c3                   	ret    
